; ModuleID = '56/1522.c'
source_filename = "56/1522.c"
target datalayout = "e-m:e-p270:32:32-p271:32:32-p272:64:64-i64:64-f80:128-n8:16:32:64-S128"
target triple = "x86_64-pc-linux-gnu"

@.str = private unnamed_addr constant [3 x i8] c"%d\00", align 1
@.str.1 = private unnamed_addr constant [4 x i8] c"%d\0A\00", align 1

; Function Attrs: noinline nounwind uwtable
define dso_local void @main() #0 {
  %1 = alloca i32, align 4
  %2 = alloca i64, align 8
  %3 = call i32 (i8*, ...) @__isoc99_scanf(i8* getelementptr inbounds ([3 x i8], [3 x i8]* @.str, i64 0, i64 0), i64* %2)
  br label %4

4:                                                ; preds = %7, %0
  %5 = load i64, i64* %2, align 8
  %6 = icmp sgt i64 %5, 9
  br i1 %6, label %7, label %15

7:                                                ; preds = %4
  %8 = load i64, i64* %2, align 8
  %9 = srem i64 %8, 10
  %10 = trunc i64 %9 to i32
  store i32 %10, i32* %1, align 4
  %11 = load i32, i32* %1, align 4
  %12 = call i32 (i8*, ...) @printf(i8* getelementptr inbounds ([3 x i8], [3 x i8]* @.str, i64 0, i64 0), i32 %11)
  %13 = load i64, i64* %2, align 8
  %14 = sdiv i64 %13, 10
  store i64 %14, i64* %2, align 8
  br label %4

15:                                               ; preds = %4
  %16 = load i64, i64* %2, align 8
  %17 = call i32 (i8*, ...) @printf(i8* getelementptr inbounds ([4 x i8], [4 x i8]* @.str.1, i64 0, i64 0), i64 %16)
  ret void
}

declare dso_local i32 @__isoc99_scanf(i8*, ...) #1

declare dso_local i32 @printf(i8*, ...) #1


!llvm.module.flags = !{!0}
!llvm.ident = !{!1}

!0 = !{i32 1, !"wchar_size", i32 4}
!1 = !{!"clang version 10.0.0-4ubuntu1 "}
